; Function Attrs: null_pointer_is_valid sspstrong uwtable
define internal noundef i32 @dissect_smb2_cancel_request(ptr noundef %0, ptr readnone captures(none) %1, ptr noundef %2, i32 noundef %3, ptr readnone captures(none) %4) #0 {
  %6 = tail call zeroext i16 @tvb_get_letohs(ptr noundef %0, i32 noundef %3)
  %7 = load i32, ptr @hf_smb2_buffer_code, align 4
  %8 = zext i16 %6 to i32
  %9 = tail call ptr @proto_tree_add_uint(ptr noundef %2, i32 noundef %7, ptr noundef %0, i32 noundef %3, i32 noundef 2, i32 noundef %8)
  %10 = load i32, ptr @ett_smb2_buffercode, align 4
  %11 = tail call ptr @proto_item_add_subtree(ptr noundef %9, i32 noundef %10)
  %12 = load i32, ptr @hf_smb2_buffer_code_len, align 4
  %13 = tail call ptr @proto_tree_add_item(ptr noundef %11, i32 noundef %12, ptr noundef %0, i32 noundef %3, i32 noundef 2, i32 noundef -2147483648)
  %14 = load i32, ptr @hf_smb2_buffer_code_flags_dyn, align 4
  %15 = tail call ptr @proto_tree_add_item(ptr noundef %11, i32 noundef %14, ptr noundef %0, i32 noundef %3, i32 noundef 2, i32 noundef -2147483648)
  %16 = add i32 %3, 2
  %17 = load i32, ptr @hf_smb2_unknown, align 4
  %18 = tail call ptr @proto_tree_add_item(ptr noundef %2, i32 noundef %17, ptr noundef %0, i32 noundef %16, i32 noundef 2, i32 noundef 0)
  %19 = add i32 %3, 4
  ret i32 %19
}